target datalayout = "e-m:e-p270:32:32-p271:32:32-p272:64:64-i64:64-i128:128-f80:128-n8:16:32:64-S128"
target triple = "x86_64-pc-linux-gnu"

%struct.dynamic_symbol_counts = type { i64, i64 }
%struct.RBasic = type { i64, i64 }
%struct.RSymbol = type { %struct.RBasic, i64, i64, i64 }

; Function Attrs: inlinehint nounwind sspstrong willreturn memory(read) uwtable
define internal i32 @RB_BUILTIN_TYPE(i64 noundef %0) #9 {
  %2 = alloca i64, align 8
  %3 = alloca i64, align 8
  store i64 %0, ptr %2, align 8, !tbaa !6
  call void @llvm.lifetime.start.p0(i64 8, ptr %3) #15
  %4 = load i64, ptr %2, align 8, !tbaa !6
  %5 = inttoptr i64 %4 to ptr
  %6 = getelementptr inbounds nuw %struct.RBasic, ptr %5, i32 0, i32 0
  %7 = load i64, ptr %6, align 8, !tbaa !53
  %8 = and i64 %7, 31
  store i64 %8, ptr %3, align 8, !tbaa !6
  %9 = load i64, ptr %3, align 8, !tbaa !6
  %10 = trunc i64 %9 to i32
  call void @llvm.lifetime.end.p0(i64 8, ptr %3) #15
  ret i32 %10
}

; Function Attrs: nounwind sspstrong uwtable
define internal void @cs_i(i64 noundef %0, ptr noundef %1) #0 {
  %3 = alloca i64, align 8
  %4 = alloca ptr, align 8
  %5 = alloca ptr, align 8
  %6 = alloca i64, align 8
  store i64 %0, ptr %3, align 8, !tbaa !6
  store ptr %1, ptr %4, align 8, !tbaa !46
  call void @llvm.lifetime.start.p0(i64 8, ptr %5) #15
  %7 = load ptr, ptr %4, align 8, !tbaa !46
  store ptr %7, ptr %5, align 8, !tbaa !62
  %8 = load i64, ptr %3, align 8, !tbaa !6
  %9 = call i32 @RB_BUILTIN_TYPE(i64 noundef %8) #17
  %10 = icmp eq i32 %9, 20
  br i1 %10, label %11, label %30

11:                                               ; preds = %2
  call void @llvm.lifetime.start.p0(i64 8, ptr %6) #15
  %12 = load i64, ptr %3, align 8, !tbaa !6
  %13 = inttoptr i64 %12 to ptr
  %14 = getelementptr inbounds nuw %struct.RSymbol, ptr %13, i32 0, i32 3
  %15 = load i64, ptr %14, align 8, !tbaa !64
  store i64 %15, ptr %6, align 8, !tbaa !6
  %16 = load i64, ptr %6, align 8, !tbaa !6
  %17 = and i64 %16, -15
  %18 = icmp eq i64 %17, 0
  br i1 %18, label %19, label %24

19:                                               ; preds = %11
  %20 = load ptr, ptr %5, align 8, !tbaa !62
  %21 = getelementptr inbounds nuw %struct.dynamic_symbol_counts, ptr %20, i32 0, i32 0
  %22 = load i64, ptr %21, align 8, !tbaa !20
  %23 = add i64 %22, 1
  store i64 %23, ptr %21, align 8, !tbaa !20
  br label %29

24:                                               ; preds = %11
  %25 = load ptr, ptr %5, align 8, !tbaa !62
  %26 = getelementptr inbounds nuw %struct.dynamic_symbol_counts, ptr %25, i32 0, i32 1
  %27 = load i64, ptr %26, align 8, !tbaa !22
  %28 = add i64 %27, 1
  store i64 %28, ptr %26, align 8, !tbaa !22
  br label %29

29:                                               ; preds = %24, %19
  call void @llvm.lifetime.end.p0(i64 8, ptr %6) #15
  br label %30

30:                                               ; preds = %29, %2
  call void @llvm.lifetime.end.p0(i64 8, ptr %5) #15
  ret void
}