; Function Attrs: mustprogress nofree norecurse nosync nounwind sspstrong willreturn memory(read, argmem: readwrite, inaccessiblemem: none) uwtable
define internal void @cs_i(i64 noundef %0, ptr noundef captures(none) %1) #6 {
  %3 = inttoptr i64 %0 to ptr
  %4 = load i64, ptr %3, align 8, !tbaa !32
  %5 = and i64 %4, 31
  %6 = icmp eq i64 %5, 20
  br i1 %6, label %7, label %19

7:                                                ; preds = %2
  %8 = getelementptr inbounds nuw i8, ptr %3, i64 32
  %9 = load i64, ptr %8, align 8, !tbaa !44
  %10 = and i64 %9, -15
  %11 = icmp eq i64 %10, 0
  br i1 %11, label %12, label %15

12:                                               ; preds = %7
  %13 = load i64, ptr %1, align 8, !tbaa !19
  %14 = add i64 %13, 1
  store i64 %14, ptr %1, align 8, !tbaa !19
  br label %19

15:                                               ; preds = %7
  %16 = getelementptr inbounds nuw i8, ptr %1, i64 8
  %17 = load i64, ptr %16, align 8, !tbaa !21
  %18 = add i64 %17, 1
  store i64 %18, ptr %16, align 8, !tbaa !21
  br label %19

19:                                               ; preds = %12, %15, %2
  ret void
}